target datalayout = "e-m:e-p270:32:32-p271:32:32-p272:64:64-i64:64-i128:128-f80:128-n8:16:32:64-S128"
target triple = "x86_64-pc-linux-gnu"

%struct.keytype_desc_st = type { ptr, ptr, ptr, i32, i32, ptr, ptr, ptr, ptr, ptr, ptr, ptr, ptr }
%struct.der2key_ctx_st = type { ptr, [256 x i8], ptr, i32, i8 }
%struct.X509_algor_st = type { ptr, ptr }

; Function Attrs: nounwind uwtable
define internal ptr @der2key_decode_p8(ptr noundef %0, i64 noundef %1, ptr noundef %2, ptr noundef %3) #0 {
  %5 = alloca ptr, align 8
  %6 = alloca i64, align 8
  %7 = alloca ptr, align 8
  %8 = alloca ptr, align 8
  %9 = alloca ptr, align 8
  %10 = alloca ptr, align 8
  %11 = alloca ptr, align 8
  store ptr %0, ptr %5, align 8, !tbaa !40
  store i64 %1, ptr %6, align 8, !tbaa !15
  store ptr %2, ptr %7, align 8, !tbaa !7
  store ptr %3, ptr %8, align 8, !tbaa !3
  call void @llvm.lifetime.start.p0(i64 8, ptr %9) #6
  store ptr null, ptr %9, align 8, !tbaa !42
  call void @llvm.lifetime.start.p0(i64 8, ptr %10) #6
  store ptr null, ptr %10, align 8, !tbaa !44
  call void @llvm.lifetime.start.p0(i64 8, ptr %11) #6
  store ptr null, ptr %11, align 8, !tbaa !3
  %12 = load ptr, ptr %5, align 8, !tbaa !40
  %13 = load i64, ptr %6, align 8, !tbaa !15
  %14 = call ptr @d2i_PKCS8_PRIV_KEY_INFO(ptr noundef null, ptr noundef %12, i64 noundef %13)
  store ptr %14, ptr %9, align 8, !tbaa !42
  %15 = icmp ne ptr %14, null
  br i1 %15, label %16, label %55

16:                                               ; preds = %4
  %17 = load ptr, ptr %9, align 8, !tbaa !42
  %18 = call i32 @PKCS8_pkey_get0(ptr noundef null, ptr noundef null, ptr noundef null, ptr noundef %10, ptr noundef %17)
  %19 = icmp ne i32 %18, 0
  br i1 %19, label %20, label %55

20:                                               ; preds = %16
  %21 = load ptr, ptr %10, align 8, !tbaa !44
  %22 = getelementptr inbounds nuw %struct.X509_algor_st, ptr %21, i32 0, i32 0
  %23 = load ptr, ptr %22, align 8, !tbaa !46
  %24 = call i32 @OBJ_obj2nid(ptr noundef %23)
  %25 = load ptr, ptr %7, align 8, !tbaa !7
  %26 = getelementptr inbounds nuw %struct.der2key_ctx_st, ptr %25, i32 0, i32 2
  %27 = load ptr, ptr %26, align 8, !tbaa !21
  %28 = getelementptr inbounds nuw %struct.keytype_desc_st, ptr %27, i32 0, i32 3
  %29 = load i32, ptr %28, align 8, !tbaa !50
  %30 = icmp eq i32 %24, %29
  br i1 %30, label %44, label %31

31:                                               ; preds = %20
  %32 = load ptr, ptr %10, align 8, !tbaa !44
  %33 = getelementptr inbounds nuw %struct.X509_algor_st, ptr %32, i32 0, i32 0
  %34 = load ptr, ptr %33, align 8, !tbaa !46
  %35 = call i32 @OBJ_obj2nid(ptr noundef %34)
  %36 = icmp eq i32 %35, 408
  br i1 %36, label %37, label %55

37:                                               ; preds = %31
  %38 = load ptr, ptr %7, align 8, !tbaa !7
  %39 = getelementptr inbounds nuw %struct.der2key_ctx_st, ptr %38, i32 0, i32 2
  %40 = load ptr, ptr %39, align 8, !tbaa !21
  %41 = getelementptr inbounds nuw %struct.keytype_desc_st, ptr %40, i32 0, i32 3
  %42 = load i32, ptr %41, align 8, !tbaa !50
  %43 = icmp eq i32 %42, 1172
  br i1 %43, label %44, label %55

44:                                               ; preds = %37, %20
  %45 = load ptr, ptr %8, align 8, !tbaa !3
  %46 = load ptr, ptr %9, align 8, !tbaa !42
  %47 = load ptr, ptr %7, align 8, !tbaa !7
  %48 = getelementptr inbounds nuw %struct.der2key_ctx_st, ptr %47, i32 0, i32 0
  %49 = load ptr, ptr %48, align 8, !tbaa !25
  %50 = call ptr @ossl_prov_ctx_get0_libctx(ptr noundef %49)
  %51 = load ptr, ptr %7, align 8, !tbaa !7
  %52 = getelementptr inbounds nuw %struct.der2key_ctx_st, ptr %51, i32 0, i32 1
  %53 = getelementptr inbounds [256 x i8], ptr %52, i64 0, i64 0
  %54 = call ptr %45(ptr noundef %46, ptr noundef %50, ptr noundef %53)
  store ptr %54, ptr %11, align 8, !tbaa !3
  br label %55

55:                                               ; preds = %44, %37, %31, %16, %4
  %56 = load ptr, ptr %9, align 8, !tbaa !42
  call void @PKCS8_PRIV_KEY_INFO_free(ptr noundef %56)
  %57 = load ptr, ptr %11, align 8, !tbaa !3
  call void @llvm.lifetime.end.p0(i64 8, ptr %11) #6
  call void @llvm.lifetime.end.p0(i64 8, ptr %10) #6
  call void @llvm.lifetime.end.p0(i64 8, ptr %9) #6
  ret ptr %57
}

; Function Attrs: nounwind uwtable
define internal ptr @dh_d2i_PKCS8(ptr noundef %0, i64 noundef %1, ptr noundef %2) #0 {
  %4 = alloca ptr, align 8
  %5 = alloca i64, align 8
  %6 = alloca ptr, align 8
  store ptr %0, ptr %4, align 8, !tbaa !40
  store i64 %1, ptr %5, align 8, !tbaa !15
  store ptr %2, ptr %6, align 8, !tbaa !7
  %7 = load ptr, ptr %4, align 8, !tbaa !40
  %8 = load i64, ptr %5, align 8, !tbaa !15
  %9 = load ptr, ptr %6, align 8, !tbaa !7
  %10 = call ptr @der2key_decode_p8(ptr noundef %7, i64 noundef %8, ptr noundef %9, ptr noundef @ossl_dh_key_from_pkcs8)
  ret ptr %10
}