; Function Attrs: nounwind uwtable
define internal ptr @dh_d2i_PKCS8(ptr noundef %0, i64 noundef %1, ptr noundef %2) #0 {
  %4 = alloca ptr, align 8
  call void @llvm.lifetime.start.p0(i64 8, ptr nonnull %4) #7
  store ptr null, ptr %4, align 8, !tbaa !35
  %5 = tail call ptr @d2i_PKCS8_PRIV_KEY_INFO(ptr noundef null, ptr noundef %0, i64 noundef %1) #7
  %.not.i = icmp eq ptr %5, null
  br i1 %.not.i, label %der2key_decode_p8.exit, label %6

6:                                                ; preds = %3
  %7 = call i32 @PKCS8_pkey_get0(ptr noundef null, ptr noundef null, ptr noundef null, ptr noundef nonnull %4, ptr noundef nonnull %5) #7
  %.not11.i = icmp eq i32 %7, 0
  br i1 %.not11.i, label %der2key_decode_p8.exit, label %8

8:                                                ; preds = %6
  %9 = load ptr, ptr %4, align 8, !tbaa !35
  %10 = load ptr, ptr %9, align 8, !tbaa !37
  %11 = call i32 @OBJ_obj2nid(ptr noundef %10) #7
  %12 = getelementptr inbounds nuw i8, ptr %2, i64 264
  %13 = load ptr, ptr %12, align 8, !tbaa !11
  %14 = getelementptr inbounds nuw i8, ptr %13, i64 24
  %15 = load i32, ptr %14, align 8, !tbaa !41
  %16 = icmp eq i32 %11, %15
  br i1 %16, label %27, label %17

17:                                               ; preds = %8
  %18 = load ptr, ptr %4, align 8, !tbaa !35
  %19 = load ptr, ptr %18, align 8, !tbaa !37
  %20 = call i32 @OBJ_obj2nid(ptr noundef %19) #7
  %21 = icmp eq i32 %20, 408
  br i1 %21, label %22, label %der2key_decode_p8.exit

22:                                               ; preds = %17
  %23 = load ptr, ptr %12, align 8, !tbaa !11
  %24 = getelementptr inbounds nuw i8, ptr %23, i64 24
  %25 = load i32, ptr %24, align 8, !tbaa !41
  %26 = icmp eq i32 %25, 1172
  br i1 %26, label %27, label %der2key_decode_p8.exit

27:                                               ; preds = %22, %8
  %28 = load ptr, ptr %2, align 8, !tbaa !3
  %29 = call ptr @ossl_prov_ctx_get0_libctx(ptr noundef %28) #7
  %30 = getelementptr inbounds nuw i8, ptr %2, i64 8
  %31 = call ptr @ossl_dh_key_from_pkcs8(ptr noundef nonnull %5, ptr noundef %29, ptr noundef nonnull %30) #7
  br label %der2key_decode_p8.exit

der2key_decode_p8.exit:                           ; preds = %3, %6, %17, %22, %27
  %.0.i = phi ptr [ %31, %27 ], [ null, %22 ], [ null, %17 ], [ null, %6 ], [ null, %3 ]
  call void @PKCS8_PRIV_KEY_INFO_free(ptr noundef %5) #7
  call void @llvm.lifetime.end.p0(i64 8, ptr nonnull %4) #7
  ret ptr %.0.i
}